; Function Attrs: mustprogress uwtable
define void @_ZN6icu_7515AlphabeticIndex6BucketC2ERKNS_13UnicodeStringES4_25UAlphabeticIndexLabelType(ptr noundef nonnull align 8 dereferenceable(168) %this, ptr noundef nonnull align 8 dereferenceable(64) %label, ptr noundef nonnull align 8 dereferenceable(64) %lowerBoundary, i32 noundef %type) unnamed_addr #3 align 2 personality ptr @__gxx_personality_v0 {
entry:
  store ptr getelementptr inbounds ({ [5 x ptr] }, ptr @_ZTVN6icu_7515AlphabeticIndex6BucketE, i64 0, i32 0, i64 2), ptr %this, align 8
  %label_ = getelementptr inbounds i8, ptr %this, i64 8
  invoke void @_ZN6icu_7513UnicodeStringC1ERKS0_(ptr noundef nonnull align 8 dereferenceable(64) %label_, ptr noundef nonnull align 8 dereferenceable(64) %label)
          to label %invoke.cont unwind label %lpad

invoke.cont:                                      ; preds = %entry
  %lowerBoundary_ = getelementptr inbounds i8, ptr %this, i64 72
  invoke void @_ZN6icu_7513UnicodeStringC1ERKS0_(ptr noundef nonnull align 8 dereferenceable(64) %lowerBoundary_, ptr noundef nonnull align 8 dereferenceable(64) %lowerBoundary)
          to label %invoke.cont3 unwind label %lpad2

invoke.cont3:                                     ; preds = %invoke.cont
  %labelType_ = getelementptr inbounds i8, ptr %this, i64 136
  store i32 %type, ptr %labelType_, align 8
  %displayBucket_ = getelementptr inbounds i8, ptr %this, i64 144
  store ptr null, ptr %displayBucket_, align 8
  %displayIndex_ = getelementptr inbounds i8, ptr %this, i64 152
  store i32 -1, ptr %displayIndex_, align 8
  %records_ = getelementptr inbounds i8, ptr %this, i64 160
  store ptr null, ptr %records_, align 8
  ret void

lpad:                                             ; preds = %entry
  %0 = landingpad { ptr, i32 }
          cleanup
  br label %ehcleanup

lpad2:                                            ; preds = %invoke.cont
  %1 = landingpad { ptr, i32 }
          cleanup
  tail call void @_ZN6icu_7513UnicodeStringD1Ev(ptr noundef nonnull align 8 dereferenceable(64) %label_) #16
  br label %ehcleanup

ehcleanup:                                        ; preds = %lpad2, %lpad
  %.pn = phi { ptr, i32 } [ %1, %lpad2 ], [ %0, %lpad ]
  tail call void @_ZN6icu_757UObjectD2Ev(ptr noundef nonnull align 8 dereferenceable(8) %this) #16
  resume { ptr, i32 } %.pn
}